(dp1
S'tracker_plugin'
p2
ccopy_reg
_reconstructor
p3
(ctwisted.plugin
CachedDropin
p4
c__builtin__
object
p5
NtRp6
(dp7
S'moduleName'
p8
S'twisted.plugins.tracker_plugin'
p9
sS'description'
p10
S'\nRun Dispersy in standalone tracker mode.\n\nOutputs statistics every 300 seconds:\n- BANDWIDTH BYTES-UP BYTES-DOWN\n- COMMUNITY COUNT(OVERLAYS) COUNT(KILLED-OVERLAYS)\n- CANDIDATE COUNT(ALL_CANDIDATES)                       18/07/13 no longer used\n- CANDIDATE2 COUNT(VERIFIED_CANDIDATES)                 18/07/13 replaces CANDIDATE\n\nOutputs incoming candidates info:\n- REQ_IN2 HEX(COMMUNITY) hex(MEMBER) DISPERSY-VERSION OVERLAY-VERSION ADDRESS PORT\n- RES_IN2 HEX(COMMUNITY) hex(MEMBER) DISPERSY-VERSION OVERLAY-VERSION ADDRESS PORT\n\nOutputs destroyed communities whenever notified by a candidate:\n- DESTROY_IN HEX(COMMUNITY) hex(MEMBER) DISPERSY-VERSION OVERLAY-VERSION ADDRESS PORT\n- DESTROY_OUT HEX(COMMUNITY) hex(MEMBER) DISPERSY-VERSION OVERLAY-VERSION ADDRESS PORT\n\nNote that there is no output for REQ_IN2 for destroyed overlays.  Instead a DESTROY_OUT is given\nwhenever a introduction request is received for a destroyed overlay.\n'
p11
sS'plugins'
p12
(lp13
g3
(ctwisted.plugin
CachedPlugin
p14
g5
NtRp15
(dp16
S'provided'
p17
(lp18
ctwisted.application.service
IServiceMaker
p19
actwisted.plugin
IPlugin
p20
asS'dropin'
p21
g6
sS'name'
p22
S'serviceMaker'
p23
sg10
Nsbasbs.